   1 0000               # File:		skyscrapers.asm
   2 0000               # Author:	Brian Floersch
   3 0000               #
   4 0000               # Description:	Solves the skyscrapers puzzle
   5 0000               #
   6 0000               
   7 0000               PRINT_INT = 1
   8 0000               PRINT_STRING = 4
   9 0000               READ_INT = 5
  10 0000               EXIT = 10
  11 0000               
  12 0000               	.data
  13 0000               	.align	0
  14 0000               
  15 0000               board_size:
  16 0000 00      		.byte	0
  17 0001               board:
  18 0001 00000000		.space	256
          00000000
          00000000
          00000000
          00000000
          00000000
  19 0101               north_hints:
  20 0101 00000000		.space	32
          00000000
          00000000
          00000000
          00000000
          00000000
  21 0121               south_hints:
  22 0121 00000000		.space	32
          00000000
          00000000
          00000000
          00000000
          00000000
  23 0141               east_hints:
  24 0141 00000000		.space	32
          00000000
          00000000
          00000000
          00000000
          00000000
  25 0161               west_hints:
  26 0161 00000000		.space	32
          00000000
          00000000
          00000000
          00000000
          00000000
  27 0181               
  28 0181               board_row_break_part:
  29 0181 2B2D2D2D		.asciiz "+---"
          00      
  30 0186               plus_char_break:
  31 0186 2B0A00  		.asciiz "+\n"
  32 0189               board_space_front:
  33 0189 7C2000  		.asciiz "| "
  34 018c               board_space_mid:
  35 018c 207C2000		.asciiz " | "
  36 0190               board_space_back:
  37 0190 207C0A00		.asciiz " |\n"
  38 0194               new_line_char:
  39 0194 0A00    		.asciiz "\n"
  40 0196               spacess:
  41 0196 202000  		.asciiz "  "
  42 0199               spaces:
  43 0199 2000    		.asciiz " "
  44 019b               logo:
  45 019b 0A2A2A2A		.ascii "\n*******************\n**  SKYSCRAPERS  **\n******************"
          2A2A2A2A
          2A2A2A2A
          2A2A2A2A
          2A2A2A2A
          0A2A2A20
  46 01d6 2A0A00  		.asciiz "*\n"
  47 01d9               init_puzzle:
  48 01d9 0A496E69		.asciiz "\nInitial Puzzle\n\n"
          7469616C
          2050757A
          7A6C650A
          0A00    
  49 01eb               final_puzzle:
  50 01eb 66696E61		.asciiz "final Puzzle\n\n"
          6C205075
          7A7A6C65
          0A0A00  
  51 01fa               impossible:
  52 01fa 496D706F		.asciiz "Impossible Puzzle\n\n"
          73736962
          6C652050
          757A7A6C
          650A0A00
  53 020e               	
  54 020e               board_input_error:
  55 020e 0A496E76		.asciiz "\nInvalid board size, Skyscrapers terminating\n"
          616C6964
          20626F61
          72642073
          697A652C
          20536B79
  56 023c               illegal_input_error:
  57 023c 0A496C6C		.asciiz "\nIllegal input value, Skyscrapers terminating\n"
          6567616C
          20696E70
          75742076
          616C7565
          2C20536B
  58 026b               fixed_number_input_error:
  59 026b 0A496E76		.asciiz "\nInvalid number of fixed values, Skyscrapers terminating\n"
          616C6964
          206E756D
          62657220
          6F662066
          69786564
  60 02a5               fixed_input_error:
  61 02a5 0A496C6C		.asciiz "\nIllegal fixed input values, Skyscrapers terminating\n"
          6567616C
          20666978
          65642069
          6E707574
          2076616C
  62 02db               	
  63 0000               	.text
  64 0000               	.align	2
  65 0000               
  66 0000               #####################################################
  67 0000               #                  Program area                     #
  68 0000               #####################################################
  69 0000               
  70 0000               #
  71 0000               # Name: Main
  72 0000               #
  73 0000               main:
  74 0000 23BDFFF8		addi	$sp, $sp, -8
  75 0004 AFBF0004		sw	$ra, 4($sp)
  76 0008 AFB00000		sw	$s0, 0($sp)
  77 000c               	
  78 000c 3C040000		la	$a0, logo
     0010 34840000
  79 0014 0C00022E		jal	print_string
  80 0018               	
  81 0018 0C000133		jal	read_input
  82 001c 1040001C		beq	$v0, $zero, main_done
  83 0020               	
  84 0020               	
  85 0020 3C040000		la	$a0, init_puzzle
     0024 34840000
  86 0028 0C00022E		jal	print_string
  87 002c               	
  88 002c 0C0001BC		jal	print_board
  89 0030               	
  90 0030 3C040000		la	$a0, new_line_char
     0034 34840000
  91 0038 0C00022E		jal	print_string
  92 003c               	
  93 003c               	
  94 003c 3C040000		la	$a0, board
     0040 34840000
  95 0044 34050000		li	$a1, 0
  96 0048 3C080000		la	$t0, board_size
     004c 35080000
  97 0050 81060000		lb	$a2, 0($t0)
  98 0054 00C60018		mul	$a3, $a2, $a2
     0058 00003812
  99 005c               	
 100 005c 0C000028		jal	eval
 101 0060               	
 102 0060 10400008		beq	$v0, $zero, solve_fail
 103 0064               	
 104 0064 3C040000		la	$a0, final_puzzle
     0068 34840000
 105 006c 0C00022E		jal	print_string
 106 0070               	
 107 0070 0C0001BC		jal	print_board
 108 0074 3C040000		la	$a0, new_line_char
     0078 34840000
 109 007c 0C00022E		jal	print_string
 110 0080               	
 111 0080 08000024		j	main_done
 112 0084               	
 113 0084               solve_fail:
 114 0084               	
 115 0084 3C040000		la	$a0, impossible
     0088 34840000
 116 008c 0C00022E		jal	print_string
 117 0090               	
 118 0090               main_done:
 119 0090 8FBF0004		lw	$ra, 4($sp)
 120 0094 8FB00000		lw	$s0, 0($sp)
 121 0098 23BD0008		addi	$sp, $sp, 8
 122 009c 03E00008		jr	$ra
 123 00a0               
 124 00a0               
 125 00a0               
 126 00a0               
 127 00a0               #####################################################
 128 00a0               #                    Sim eval                       #
 129 00a0               #####################################################
 130 00a0               
 131 00a0               #
 132 00a0               # Name: eval
 133 00a0               #
 134 00a0               # Arguments:
 135 00a0               #    a0: board location pointer
 136 00a0               #    a1: board locaiton counter
 137 00a0               #    a2: board bound
 138 00a0               #    a3: board length
 139 00a0               #
 140 00a0               eval:
 141 00a0 23BDFFE0		addi	$sp, $sp, -32
 142 00a4 AFBF001C		sw	$ra, 28($sp)
 143 00a8 AFB60018		sw	$s6, 24($sp)
 144 00ac AFB50014		sw	$s5, 20($sp)
 145 00b0 AFB40010		sw	$s4, 16($sp)
 146 00b4 AFB3000C		sw	$s3, 12($sp)
 147 00b8 AFB20008		sw	$s2, 8($sp)
 148 00bc AFB10004		sw	$s1, 4($sp)
 149 00c0 AFB00000		sw	$s0, 0($sp)
 150 00c4               	
 151 00c4 00808021		move	$s0, $a0				#save board pointer
 152 00c8 00A08821		move	$s1, $a1				#save locaiton counter
 153 00cc 00C09021		move	$s2, $a2				#save board bound
 154 00d0 00E09821		move	$s3, $a3				#save board length
 155 00d4               	
 156 00d4 82150000		lb	$s5, 0($s0)				#save current value
 157 00d8               	
 158 00d8 12A0000B		beq	$s5, $zero, eval_not_found_fixed
 159 00dc               	
 160 00dc               							#fixed found if here
 161 00dc               	
 162 00dc 226BFFFF		addi	$t3, $s3, -1
 163 00e0 162B0002		bne	$s1, $t3, no_last_fixed_space
 164 00e4               	
 165 00e4               	
 166 00e4 0C000061		jal	validate_board
 167 00e8               	
 168 00e8 08000057		j	eval_end
 169 00ec               
 170 00ec               no_last_fixed_space:
 171 00ec               	
 172 00ec 22040001		addi	$a0, $s0, 1				#tick board pointer
 173 00f0 22250001		addi	$a1, $s1, 1				#tick counter
 174 00f4 02403021		move	$a2, $s2				
 175 00f8 02603821		move	$a3, $s3
 176 00fc 00001021		move	$v0, $zero
 177 0100               	
 178 0100 0C000028		jal	eval					#recurse
 179 0104               	
 180 0104 08000057		j	eval_end
 181 0108               
 182 0108               eval_not_found_fixed:
 183 0108               	
 184 0108 34140001		li	$s4, 1					#s4 is our counter
 185 010c               	
 186 010c               eval_loop:
 187 010c               	
 188 010c 22590001		addi	$t9, $s2, 1
 189 0110 12990011		beq	$s4, $t9, eval_loop_done
 190 0114               	
 191 0114 A2140000		sb	$s4, 0($s0)				#write to board
 192 0118 0C000061		jal	validate_board				#validate
 193 011c               	
 194 011c 1040000B		beq	$v0, $zero, eval_loop_bottom		#branch if bad place
 195 0120               	
 196 0120 226BFFFF		addi	$t3, $s3, -1
 197 0124 162B0001		bne	$s1, $t3, not_last_place
 198 0128               	
 199 0128 08000057		j	eval_end
 200 012c               	
 201 012c               	
 202 012c               not_last_place:
 203 012c 22040001		addi	$a0, $s0, 1				#tick board pointer
 204 0130 22250001		addi	$a1, $s1, 1				#tick counter
 205 0134 02403021		move	$a2, $s2				
 206 0138 02603821		move	$a3, $s3
 207 013c 00001021		move	$v0, $zero
 208 0140               	
 209 0140 0C000028		jal	eval					#recurse
 210 0144               	
 211 0144 10400001		beq	$v0, $zero, eval_loop_bottom
 212 0148               	
 213 0148 08000057		j	eval_end
 214 014c               	
 215 014c               eval_loop_bottom:
 216 014c               	
 217 014c A2000000		sb	$zero, 0($s0)				#rest board locaiton
 218 0150 22940001		addi	$s4, $s4, 1				#tick
 219 0154 08000043		j	eval_loop
 220 0158               	
 221 0158               	
 222 0158               eval_loop_done:
 223 0158 08000057		j	eval_end
 224 015c               	
 225 015c               eval_end:
 226 015c               	
 227 015c 8FBF001C		lw	$ra, 28($sp)
 228 0160 8FB60018		lw	$s6, 24($sp)
 229 0164 8FB50014		lw	$s5, 20($sp)
 230 0168 8FB40010		lw	$s4, 16($sp)
 231 016c 8FB3000C		lw	$s3, 12($sp)
 232 0170 8FB20008		lw	$s2, 8($sp)
 233 0174 8FB10004		lw	$s1, 4($sp)
 234 0178 8FB00000		lw	$s0, 0($sp)
 235 017c 23BD0020		addi	$sp, $sp, 32
 236 0180 03E00008		jr	$ra
 237 0184               
 238 0184               
 239 0184               
 240 0184               
 241 0184               
 242 0184               
 243 0184               
 244 0184               #####################################################
 245 0184               #                    validate                       #
 246 0184               #####################################################
 247 0184               
 248 0184               #
 249 0184               # Name: validate_board
 250 0184               #
 251 0184               #
 252 0184               validate_board:
 253 0184 23BDFFF8		addi	$sp, $sp, -8
 254 0188 AFBF0004		sw	$ra, 4($sp)
 255 018c AFB00000		sw	$s0, 0($sp)
 256 0190               	
 257 0190 3C080000		la	$t0, board_size
     0194 35080000
 258 0198 81100000		lb	$s0, 0($t0)
 259 019c               	
 260 019c               	
 261 019c 3C040000		la	$a0, north_hints
     01a0 34840000
 262 01a4 3C050000		la	$a1, get_next_north
     01a8 34A503E4
 263 01ac 02003021		move	$a2, $s0
 264 01b0               	
 265 01b0 0C000087		jal	generic_check_board
 266 01b4               	
 267 01b4 10400015		beq	$v0, $zero, done_validate
 268 01b8               	
 269 01b8 3C040000		la	$a0, south_hints
     01bc 34840000
 270 01c0 3C050000		la	$a1, get_next_south
     01c4 34A50450
 271 01c8 02003021		move	$a2, $s0
 272 01cc               	
 273 01cc 0C000087		jal	generic_check_board
 274 01d0               	
 275 01d0 1040000E		beq	$v0, $zero, done_validate
 276 01d4               	
 277 01d4 3C040000		la	$a0, east_hints
     01d8 34840000
 278 01dc 3C050000		la	$a1, get_next_east
     01e0 34A50424
 279 01e4 02003021		move	$a2, $s0
 280 01e8               	
 281 01e8 0C000087		jal	generic_check_board
 282 01ec               	
 283 01ec 10400007		beq	$v0, $zero, done_validate
 284 01f0               	
 285 01f0 3C040000		la	$a0, west_hints
     01f4 34840000
 286 01f8 3C050000		la	$a1, get_next_west
     01fc 34A50400
 287 0200 02003021		move	$a2, $s0
 288 0204               	
 289 0204 0C000087		jal	generic_check_board
 290 0208               	
 291 0208 10400000		beq	$v0, $zero, done_validate
 292 020c               	
 293 020c               	
 294 020c               done_validate:
 295 020c 8FBF0004		lw	$ra, 4($sp)
 296 0210 8FB00000		lw	$s0, 0($sp)
 297 0214 23BD0008		addi	$sp, $sp, 8
 298 0218 03E00008		jr	$ra
 299 021c               
 300 021c               
 301 021c               #
 302 021c               # Name: generic_check_board
 303 021c               #
 304 021c               # Arguments:
 305 021c               #    a0: hint_pointer
 306 021c               #    a1: index_funct_pointer
 307 021c               #    a2: board_size
 308 021c               #
 309 021c               generic_check_board:
 310 021c 23BDFFDC		addi	$sp, $sp, -36
 311 0220 AFBF0020		sw	$ra, 32($sp)
 312 0224 AFB7001C		sw	$s7, 28($sp)
 313 0228 AFB60018		sw	$s6, 24($sp)
 314 022c AFB50014		sw	$s5, 20($sp)
 315 0230 AFB40010		sw	$s4, 16($sp)
 316 0234 AFB3000C		sw	$s3, 12($sp)
 317 0238 AFB20008		sw	$s2, 8($sp)
 318 023c AFB10004		sw	$s1, 4($sp)
 319 0240 AFB00000		sw	$s0, 0($sp)
 320 0244               	
 321 0244               	
 322 0244 00808021		move	$s0, $a0		#hint pointer
 323 0248 00A08821		move	$s1, $a1		#index funct pointer
 324 024c 00C09021		move	$s2, $a2		#board size
 325 0250               	
 326 0250 34130000		li	$s3, 0			#col counter
 327 0254 34160001		li	$s6, 1			#defualt to pass
 328 0258               		
 329 0258               	
 330 0258               generic_check_loop_col:
 331 0258               
 332 0258 1253002C		beq	$s2, $s3, generic_check_loop_done_col
 333 025c               	
 334 025c               	
 335 025c 34140000		li	$s4, 0			#row counter
 336 0260 34150000		li	$s5, 0			#height counter
 337 0264 340D0000		li	$t5, 0			#last building
 338 0268               	
 339 0268               					#check result
 340 0268               	
 341 0268 82170000		lb	$s7, 0($s0)		#current hint
 342 026c               	
 343 026c               generic_check_loop_row:
 344 026c               
 345 026c               	
 346 026c 12E00020		beq	$s7, $zero, generic_check_loop_done_row		#no hint, pass
 347 0270               
 348 0270 1254001F		beq	$s2, $s4, generic_check_loop_done_row		#loop end
 349 0274               	
 350 0274 2284FFFF		addi	$a0, $s4, -1		#backup one
 351 0278 02602821		move	$a1, $s3
 352 027c 02403021		move	$a2, $s2		#alwas load boad size
 353 0280               	
 354 0280               	
 355 0280               	
 356 0280 23BDFFFC		addi	$sp, $sp, -4		#have to save restore $t5
 357 0284 AFAD0000		sw	$t5, 0($sp)
 358 0288               	
 359 0288 0220F809		jalr	$s1			#call indexer funct
 360 028c               	
 361 028c 8FAD0000		lw	$t5, 0($sp)
 362 0290 23BD0004		addi	$sp, $sp, 4
 363 0294               	
 364 0294 00405021		move	$t2, $v0		#set cur
 365 0298               	
 366 0298               	
 367 0298               	
 368 0298 02602021		move	$a0, $s3		#load col number
 369 029c 02202821		move	$a1, $s1		#funct pointer
 370 02a0 01403021		move	$a2, $t2		#val
 371 02a4 02403821		move	$a3, $s2		#board size
 372 02a8               	
 373 02a8 23BDFFF8		addi	$sp, $sp, -8		#have to save restore stuff
 374 02ac AFAA0004		sw	$t2, 4($sp)
 375 02b0 AFAD0000		sw	$t5, 0($sp)
 376 02b4               	
 377 02b4 0C0000CF		jal	repeat_check
 378 02b8               	
 379 02b8 8FAD0000		lw	$t5, 0($sp)
 380 02bc 8FAA0004		lw	$t2, 4($sp)
 381 02c0 23BD0008		addi	$sp, $sp, 8
 382 02c4               	
 383 02c4 1440000F		bne	$v0, $zero, check_fail
 384 02c8               	
 385 02c8               	
 386 02c8               	
 387 02c8 1140000B		beq	$t2, $zero, generic_check_loop_found_zero	#found zero
 388 02cc               	
 389 02cc 21AE0001		addi	$t6, $t5, 1
 390 02d0 014E082A		blt	$t2, $t6, pass_add
     02d4 14200003
 391 02d8               	
 392 02d8 22B50001		addi	$s5, $s5, 1					#add if last
 393 02dc 01406821		move	$t5, $t2					#set greatest
 394 02e0 01A02021		move	$a0, $t5
 395 02e4               	
 396 02e4               pass_add:
 397 02e4               
 398 02e4 080000BA		j	continue_check_loop
 399 02e8               	
 400 02e8               continue_check_loop:
 401 02e8               	
 402 02e8 22940001		addi	$s4, $s4, 1
 403 02ec 0800009B		j	generic_check_loop_row
 404 02f0               
 405 02f0               generic_check_loop_done_row:
 406 02f0               	
 407 02f0 12B70001		beq	$s5, $s7, generic_check_loop_found_zero
 408 02f4 080000C1		j	check_fail
 409 02f8               	
 410 02f8               generic_check_loop_found_zero:
 411 02f8               	
 412 02f8 22100001		addi	$s0, $s0, 1
 413 02fc               	
 414 02fc 22730001		addi	$s3, $s3, 1
 415 0300 08000096		j	generic_check_loop_col
 416 0304               	
 417 0304               check_fail:
 418 0304 34160000		li	$s6, 0						#reutrn 0
 419 0308 080000C3		j	generic_check_loop_done_col			#break loops	
 420 030c               
 421 030c               generic_check_loop_done_col:
 422 030c               
 423 030c 02C01021		move	$v0, $s6					#reutrn result
 424 0310               	
 425 0310 8FBF0020		lw	$ra, 32($sp)
 426 0314 8FB7001C		lw	$s7, 28($sp)
 427 0318 8FB60018		lw	$s6, 24($sp)
 428 031c 8FB50014		lw	$s5, 20($sp)
 429 0320 8FB40010		lw	$s4, 16($sp)
 430 0324 8FB3000C		lw	$s3, 12($sp)
 431 0328 8FB20008		lw	$s2, 8($sp)
 432 032c 8FB10004		lw	$s1, 4($sp)
 433 0330 8FB00000		lw	$s0, 0($sp)
 434 0334 23BD0024		addi	$sp, $sp, 36
 435 0338 03E00008		jr	$ra
 436 033c               	
 437 033c               	
 438 033c               #
 439 033c               # Name: repeat check
 440 033c               #
 441 033c               # Arguments:
 442 033c               #    a0: col number
 443 033c               #    a1: get_next_pointer
 444 033c               #    a2: val
 445 033c               #    a3: board_size
 446 033c               #	
 447 033c               repeat_check:
 448 033c 23BDFFDC		addi	$sp, $sp, -36
 449 0340 AFBF0020		sw	$ra, 32($sp)
 450 0344 AFB7001C		sw	$s7, 28($sp)
 451 0348 AFB60018		sw	$s6, 24($sp)
 452 034c AFB50014		sw	$s5, 20($sp)
 453 0350 AFB40010		sw	$s4, 16($sp)
 454 0354 AFB3000C		sw	$s3, 12($sp)
 455 0358 AFB20008		sw	$s2, 8($sp)
 456 035c AFB10004		sw	$s1, 4($sp)
 457 0360 AFB00000		sw	$s0, 0($sp)
 458 0364               
 459 0364 00808021		move	$s0, $a0	#col
 460 0368 00A08821		move	$s1, $a1	#funct
 461 036c 00C09021		move	$s2, $a2	#val
 462 0370 00E09821		move	$s3, $a3	#board_size
 463 0374               	
 464 0374 34140000		li	$s4, 0		#counter
 465 0378 34150000		li	$s5, 0		#false by default
 466 037c 34160000		li	$s6, 0		#rpt counter
 467 0380               	
 468 0380               repeat_check_loop:
 469 0380               	
 470 0380 1293000C		beq	$s4, $s3, repeat_check_loop_done
 471 0384               	
 472 0384 2284FFFF		addi	$a0, $s4, -1		#backup one to get next
 473 0388 02002821		move	$a1, $s0		#col
 474 038c 02603021		move	$a2, $s3		#alwas load boad size
 475 0390               	
 476 0390 0220F809		jalr	$s1			#call indexer funct
 477 0394               	
 478 0394 10400007		beq	$v0, $zero, repeat_check_loop_done
 479 0398 14520003		bne	$v0, $s2, repeat_check_loop_bottom
 480 039c               	
 481 039c               					#match_found
 482 039c               
 483 039c 22D60001		addi	$s6, $s6, 1
 484 03a0               	
 485 03a0 340A0002		li	$t2, 2
 486 03a4 12CA0002		beq	$s6, $t2, repeat_found
 487 03a8               	
 488 03a8               	
 489 03a8               repeat_check_loop_bottom:
 490 03a8 22940001		addi	$s4, $s4, 1
 491 03ac 080000E0		j	repeat_check_loop
 492 03b0               	
 493 03b0               repeat_found:
 494 03b0               	
 495 03b0 34150001		li	$s5, 1
 496 03b4               
 497 03b4               repeat_check_loop_done:
 498 03b4               	
 499 03b4               	
 500 03b4 02A01021		move	$v0, $s5
 501 03b8               	
 502 03b8 8FBF0020		lw	$ra, 32($sp)
 503 03bc 8FB7001C		lw	$s7, 28($sp)
 504 03c0 8FB60018		lw	$s6, 24($sp)
 505 03c4 8FB50014		lw	$s5, 20($sp)
 506 03c8 8FB40010		lw	$s4, 16($sp)
 507 03cc 8FB3000C		lw	$s3, 12($sp)
 508 03d0 8FB20008		lw	$s2, 8($sp)
 509 03d4 8FB10004		lw	$s1, 4($sp)
 510 03d8 8FB00000		lw	$s0, 0($sp)
 511 03dc 23BD0024		addi	$sp, $sp, 36
 512 03e0 03E00008		jr	$ra
 513 03e4               
 514 03e4               	
 515 03e4               
 516 03e4               #
 517 03e4               # Name: get_next_north
 518 03e4               #
 519 03e4               # Arguments:
 520 03e4               #    a0: col index
 521 03e4               #    a1: current_row_index
 522 03e4               #
 523 03e4               get_next_north:
 524 03e4 23BDFFFC		addi	$sp, $sp, -4
 525 03e8 AFBF0000		sw	$ra, 0($sp)
 526 03ec               	
 527 03ec 20840001		addi	$a0, $a0, 1
 528 03f0               	
 529 03f0 0C00011D		jal	read_board
 530 03f4               	
 531 03f4 8FBF0000		lw	$ra, 0($sp)
 532 03f8 23BD0004		addi	$sp, $sp, 4
 533 03fc 03E00008		jr	$ra
 534 0400               
 535 0400               #
 536 0400               # Name: get_next_west
 537 0400               #
 538 0400               # Arguments:
 539 0400               #    a0: row index
 540 0400               #    a1: current_col_index
 541 0400               #
 542 0400               get_next_west:
 543 0400 23BDFFFC		addi	$sp, $sp, -4
 544 0404 AFBF0000		sw	$ra, 0($sp)
 545 0408               	
 546 0408 00A04021		move	$t0, $a1
 547 040c 20850001		addi	$a1, $a0, 1
 548 0410 01002021		move	$a0, $t0
 549 0414               	
 550 0414 0C00011D		jal	read_board
 551 0418               	
 552 0418 8FBF0000		lw	$ra, 0($sp)
 553 041c 23BD0004		addi	$sp, $sp, 4
 554 0420 03E00008		jr	$ra
 555 0424               
 556 0424               #
 557 0424               # Name: get_next_east
 558 0424               #
 559 0424               # Arguments:
 560 0424               #    a0: row index
 561 0424               #    a1: current_col_index
 562 0424               #    a2: board size
 563 0424               #
 564 0424               get_next_east:
 565 0424 23BDFFFC		addi	$sp, $sp, -4
 566 0428 AFBF0000		sw	$ra, 0($sp)
 567 042c               	
 568 042c 00A04021		move	$t0, $a1
 569 0430 20850001		addi	$a1, $a0, 1
 570 0434 00C52822		sub	$a1, $a2, $a1
 571 0438 20A5FFFF		addi	$a1, $a1, -1
 572 043c 01002021		move	$a0, $t0
 573 0440               	
 574 0440 0C00011D		jal	read_board
 575 0444               	
 576 0444 8FBF0000		lw	$ra, 0($sp)
 577 0448 23BD0004		addi	$sp, $sp, 4
 578 044c 03E00008		jr	$ra
 579 0450               	
 580 0450               #
 581 0450               # Name: get_next_south
 582 0450               #
 583 0450               # Arguments:
 584 0450               #    a0: col index
 585 0450               #    a1: current_row_index
 586 0450               #    a2: board size
 587 0450               #
 588 0450               get_next_south:
 589 0450 23BDFFFC		addi	$sp, $sp, -4
 590 0454 AFBF0000		sw	$ra, 0($sp)
 591 0458               	
 592 0458               	
 593 0458 20840001		addi	$a0, $a0, 1
 594 045c               	
 595 045c 00C42022		sub	$a0, $a2, $a0
 596 0460 2084FFFF		addi	$a0, $a0, -1
 597 0464               	
 598 0464 0C00011D		jal	read_board
 599 0468               	
 600 0468 8FBF0000		lw	$ra, 0($sp)
 601 046c 23BD0004		addi	$sp, $sp, 4
 602 0470 03E00008		jr	$ra
 603 0474               
 604 0474               
 605 0474               
 606 0474               
 607 0474               #####################################################
 608 0474               #               Data Acces Functions                #
 609 0474               #####################################################
 610 0474               
 611 0474               #
 612 0474               # Name: read_board
 613 0474               #
 614 0474               # Arguments:
 615 0474               #    a0: x index
 616 0474               #    a1: y index
 617 0474               #
 618 0474               read_board:
 619 0474 3C080000		la	$t0, board_size
     0478 35080000
 620 047c 81080000		lb	$t0, 0($t0)
 621 0480               					#t0 has board width
 622 0480               	
 623 0480 01040018		mul	$t0, $t0, $a0
     0484 00004012
 624 0488 01054020		add	$t0, $t0, $a1
 625 048c               	
 626 048c 3C090000		la	$t1, board
     0490 35290000
 627 0494 01284020		add	$t0, $t1, $t0
 628 0498 81020000		lb	$v0, 0($t0)
 629 049c               	
 630 049c 03E00008		jr	$ra
 631 04a0               	
 632 04a0               #
 633 04a0               # Name: write_board
 634 04a0               #
 635 04a0               # Arguments:
 636 04a0               #    a0: x index
 637 04a0               #    a1: y index
 638 04a0               #    a2: value
 639 04a0               #
 640 04a0               write_board:
 641 04a0 3C080000		la	$t0, board_size
     04a4 35080000
 642 04a8 81080000		lb	$t0, 0($t0)
 643 04ac               					#t0 has board width
 644 04ac               	
 645 04ac 01040018		mul	$t0, $t0, $a0
     04b0 00004012
 646 04b4 01054020		add	$t0, $t0, $a1
 647 04b8               	
 648 04b8 3C090000		la	$t1, board
     04bc 35290000
 649 04c0 01284020		add	$t0, $t1, $t0
 650 04c4 A1060000		sb	$a2, 0($t0)
 651 04c8               	
 652 04c8 03E00008		jr	$ra
 653 04cc               	
 654 04cc               
 655 04cc               #####################################################
 656 04cc               #               Data Input Functions                #
 657 04cc               #####################################################
 658 04cc               
 659 04cc               #
 660 04cc               # Name: read_input
 661 04cc               #
 662 04cc               read_input:
 663 04cc 23BDFFF8		addi	$sp, $sp, -8
 664 04d0 AFBF0004		sw	$ra, 4($sp)
 665 04d4 AFB00000		sw	$s0, 0($sp)
 666 04d8               
 667 04d8               						#read user input board bounds
 668 04d8 34020005		li	$v0, READ_INT
 669 04dc 0000000C		syscall
 670 04e0               	
 671 04e0               						#confirm starting board bounds
 672 04e0 34080003		li	$t0, 3
 673 04e4 34090009		li	$t1, 9
 674 04e8 3C040000		la	$a0, board_input_error
     04ec 34840000
 675 04f0 0048082A		blt	$v0, $t0, read_input_error
     04f4 14200026
 676 04f8 0122082A		blt	$t1, $v0, read_input_error
     04fc 14200024
 677 0500               	
 678 0500               						#write the borad bounds
 679 0500 3C080000		la	$t0, board_size
     0504 35080000
 680 0508 A1020000		sb	$v0, 0($t0)
 681 050c               	
 682 050c 00408021		move	$s0, $v0			#s0 will contian the board size
 683 0510               	
 684 0510 3C040000		la	$a0, north_hints
     0514 34840000
 685 0518 02002821		move	$a1, $s0
 686 051c 0C00019D		jal	load_hints
 687 0520 1040001B		beq	$v0, $zero, read_input_error
 688 0524               	
 689 0524               	
 690 0524 3C040000		la	$a0, east_hints
     0528 34840000
 691 052c 02002821		move	$a1, $s0
 692 0530 0C00019D		jal	load_hints
 693 0534 10400016		beq	$v0, $zero, read_input_error
 694 0538               
 695 0538               
 696 0538 3C040000		la	$a0, south_hints
     053c 34840000
 697 0540 02002821		move	$a1, $s0
 698 0544 0C00019D		jal	load_hints
 699 0548 10400011		beq	$v0, $zero, read_input_error
 700 054c               
 701 054c               
 702 054c 3C040000		la	$a0, west_hints
     0550 34840000
 703 0554 02002821		move	$a1, $s0
 704 0558 0C00019D		jal	load_hints
 705 055c 1040000C		beq	$v0, $zero, read_input_error
 706 0560               	
 707 0560               	
 708 0560               	
 709 0560 34020005		li	$v0, READ_INT
 710 0564 0000000C		syscall
 711 0568               	
 712 0568 3C040000		la	$a0, fixed_number_input_error
     056c 34840000
 713 0570 0040082A		blt	$v0, $zero, read_input_error
     0574 14200006
 714 0578               	
 715 0578 00402021		move	$a0, $v0
 716 057c 02002821		move	$a1, $s0
 717 0580 0C00016A		jal	load_fixed
 718 0584 10400002		beq	$v0, $zero, read_input_error
 719 0588               
 720 0588               						#all input is good
 721 0588 34020001		li	$v0, 1				#return 1
 722 058c 08000166		j	read_input_end
 723 0590               
 724 0590               	
 725 0590               read_input_error:
 726 0590               	
 727 0590 0C00022E		jal	print_string
 728 0594 34020000		li	$v0, 0				#return 0
 729 0598               
 730 0598               read_input_end:
 731 0598 8FBF0004		lw	$ra, 4($sp)
 732 059c 8FB00000		lw	$s0, 0($sp)
 733 05a0 23BD0008		addi	$sp, $sp, 8
 734 05a4 03E00008		jr	$ra
 735 05a8               
 736 05a8               
 737 05a8               
 738 05a8               
 739 05a8               #
 740 05a8               # Name: load_fixed
 741 05a8               #
 742 05a8               # Arguments: 
 743 05a8               #    $a0: num of fixed towers
 744 05a8               #    $a1: board Size
 745 05a8               #
 746 05a8               load_fixed:
 747 05a8 23BDFFEC		addi	$sp, $sp, -20
 748 05ac AFBF0010		sw	$ra, 16($sp)
 749 05b0 AFB3000C		sw	$s3, 12($sp)
 750 05b4 AFB20008		sw	$s2, 8($sp)
 751 05b8 AFB10004		sw	$s1, 4($sp)
 752 05bc AFB00000		sw	$s0, 0($sp)
 753 05c0               	
 754 05c0 00808021		move	$s0, $a0	#s0 contains number of fixed towers
 755 05c4 34110000		li	$s1, 0		#conter
 756 05c8 00A09021		move	$s2, $a1
 757 05cc               	
 758 05cc 34130001		li	$s3, 1
 759 05d0               	
 760 05d0               read_fixed_loop:
 761 05d0               
 762 05d0 12300020		beq	$s1, $s0, load_fixed_done
 763 05d4               	
 764 05d4               							#load x
 765 05d4 34020005		li	$v0, READ_INT
 766 05d8 0000000C		syscall
 767 05dc 00404021		move	$t0, $v0
 768 05e0               	
 769 05e0 0100082A		blt	$t0, $zero, size_fixed_error
     05e4 14200017
 770 05e8 0248082A		blt	$s2, $t0, size_fixed_error
     05ec 14200015
 771 05f0               	
 772 05f0               							#load y
 773 05f0 34020005		li	$v0, READ_INT
 774 05f4 0000000C		syscall
 775 05f8 00404821		move	$t1, $v0
 776 05fc               	
 777 05fc 0120082A		blt	$t1, $zero, size_fixed_error
     0600 14200010
 778 0604 0249082A		blt	$s2, $t1, size_fixed_error
     0608 1420000E
 779 060c               	
 780 060c               							#load value
 781 060c 34020005		li	$v0, READ_INT
 782 0610 0000000C		syscall
 783 0614 00405021		move	$t2, $v0
 784 0618               	
 785 0618 34190001		li	$t9, 1
 786 061c 0159082A		blt	$t2, $t9, size_fixed_error
     0620 14200008
 787 0624 024A082A		blt	$s2, $t2, size_fixed_error
     0628 14200006
 788 062c               	
 789 062c 01002021		move	$a0, $t0
 790 0630 01202821		move	$a1, $t1
 791 0634 01403021		move	$a2, $t2
 792 0638 0C000128		jal	write_board
 793 063c               	
 794 063c               	
 795 063c 22310001		addi	$s1, $s1, 1
 796 0640 08000174		j	read_fixed_loop	
 797 0644               
 798 0644               size_fixed_error:
 799 0644               	
 800 0644 3C040000		la	$a0, fixed_input_error
     0648 34840000
 801 064c 34130000		li	$s3, 0
 802 0650 08000195		j	load_fixed_done
 803 0654               	
 804 0654               load_fixed_done:
 805 0654 02601021		move	$v0, $s3
 806 0658 8FBF0010		lw	$ra, 16($sp)
 807 065c 8FB3000C		lw	$s3, 12($sp)
 808 0660 8FB20008		lw	$s2, 8($sp)
 809 0664 8FB10004		lw	$s1, 4($sp)
 810 0668 8FB00000		lw	$s0, 0($sp)
 811 066c 23BD0014		addi	$sp, $sp, 20
 812 0670 03E00008		jr	$ra
 813 0674               
 814 0674               
 815 0674               #
 816 0674               # Name: load_hints
 817 0674               #
 818 0674               # Arguments: 
 819 0674               #    $a0: hint array pointer
 820 0674               #    $a1: board size
 821 0674               #
 822 0674               load_hints:
 823 0674 23BDFFF0		addi	$sp, $sp, -16
 824 0678 AFBF000C		sw	$ra, 12($sp)
 825 067c AFB20008		sw	$s2, 8($sp)
 826 0680 AFB10004		sw	$s1, 4($sp)
 827 0684 AFB00000		sw	$s0, 0($sp)
 828 0688               	
 829 0688 00808021		move	$s0, $a0
 830 068c 00A08821		move	$s1, $a1
 831 0690               	
 832 0690 34080000		li	$t0, 0		#counter
 833 0694 34130001		li	$s3, 1
 834 0698               read_input_loop:
 835 0698               	
 836 0698 1111000E		beq	$t0, $s1, load_hints_done
 837 069c               	
 838 069c 34020005		li	$v0, READ_INT
 839 06a0 0000000C		syscall
 840 06a4               	
 841 06a4 0040082A		blt	$v0, $zero, size_input_error
     06a8 14200006
 842 06ac 0222082A		blt	$s1, $v0, size_input_error
     06b0 14200004
 843 06b4               	
 844 06b4               	
 845 06b4 A2020000		sb	$v0, 0($s0)
 846 06b8 22100001		addi	$s0, $s0, 1
 847 06bc               
 848 06bc 21080001		addi	$t0, $t0, 1
 849 06c0 080001A6		j	read_input_loop
 850 06c4               
 851 06c4               	
 852 06c4               size_input_error:
 853 06c4               	
 854 06c4 3C040000		la	$a0, illegal_input_error
     06c8 34840000
 855 06cc 34130000		li	$s3, 0
 856 06d0 080001B5		j	load_hints_done
 857 06d4               	
 858 06d4               load_hints_done:
 859 06d4 02601021		move	$v0, $s3
 860 06d8 8FBF000C		lw	$ra, 12($sp)
 861 06dc 8FB10008		lw	$s1, 8($sp)
 862 06e0 8FB10004		lw	$s1, 4($sp)
 863 06e4 8FB00000		lw	$s0, 0($sp)
 864 06e8 23BD0010		addi	$sp, $sp, 16
 865 06ec 03E00008		jr	$ra
 866 06f0               	
 867 06f0               #####################################################
 868 06f0               #               Print functions                     #
 869 06f0               #####################################################
 870 06f0               
 871 06f0               #
 872 06f0               # Name: print board
 873 06f0               #
 874 06f0               print_board:
 875 06f0               	
 876 06f0 23BDFFEC		addi	$sp, $sp, -20
 877 06f4 AFBF0010		sw	$ra, 16($sp)
 878 06f8 AFB3000C		sw	$s3, 12($sp)
 879 06fc AFB20008		sw	$s2, 8($sp)
 880 0700 AFB10004		sw	$s1, 4($sp)
 881 0704 AFB00000		sw	$s0, 0($sp)
 882 0708               	
 883 0708 3C100000		la	$s0, board_size
     070c 36100000
 884 0710 82100000		lb	$s0, 0($s0)
 885 0714 3C110000		la	$s1, board		#s1 contains board pointer
     0718 36310000
 886 071c 34120000		li	$s2, 0
 887 0720               
 888 0720 3C040000		la	$a0, north_hints
     0724 34840000
 889 0728 0C000215		jal	print_x_hints
 890 072c               
 891 072c               print_board_loop_row:
 892 072c               
 893 072c 1250001B		beq	$s2, $s0, print_board_done
 894 0730               
 895 0730 0C0001F5		jal	print_break_row		#print break
 896 0734               
 897 0734 3C040000		la	$a0, west_hints
     0738 34840000
 898 073c 02402821		move	$a1, $s2
 899 0740 0C00020D		jal	print_y_hint		#print y hint
 900 0744               	
 901 0744 3C040000		la	$a0, spaces
     0748 34840000
 902 074c 0C00022E		jal	print_string
 903 0750               
 904 0750 3C040000		la	$a0, board_space_front
     0754 34840000
 905 0758 0C00022E		jal	print_string
 906 075c               	
 907 075c               
 908 075c 00009821		move	$s3, $zero
 909 0760               
 910 0760               
 911 0760               print_board_loop_col:
 912 0760               
 913 0760 12700008		beq	$s3, $s0, print_board_loop_col_done
 914 0764               
 915 0764 82240000		lb	$a0, 0($s1)
 916 0768 0C000231		jal	print_number_exclude
 917 076c               
 918 076c 3C040000		la	$a0, board_space_mid
     0770 34840000
 919 0774 0C00022E		jal	print_string
 920 0778               	
 921 0778 22730001		addi	$s3, $s3, 1
 922 077c 22310001		addi	$s1, $s1, 1
 923 0780 080001D8		j	print_board_loop_col
 924 0784               	
 925 0784               print_board_loop_col_done:
 926 0784               	
 927 0784 3C040000		la	$a0, east_hints
     0788 34840000
 928 078c 02402821		move	$a1, $s2
 929 0790 0C00020D		jal	print_y_hint
 930 0794               	
 931 0794 22520001		addi	$s2, $s2, 1
 932 0798               	
 933 0798 080001CB		j	print_board_loop_row
 934 079c               
 935 079c               print_board_done:
 936 079c               
 937 079c 0C0001F5		jal	print_break_row
 938 07a0               
 939 07a0 3C040000		la	$a0, south_hints
     07a4 34840000
 940 07a8 0C000215		jal	print_x_hints
 941 07ac               	
 942 07ac 3C040000		la	$a0, new_line_char
     07b0 34840000
 943 07b4 0C00022E		jal	print_string
 944 07b8               
 945 07b8 8FBF0010		lw	$ra, 16($sp)
 946 07bc 8FB3000C		lw	$s3, 12($sp)
 947 07c0 8FB20008		lw	$s2, 8($sp)
 948 07c4 8FB10004		lw	$s1, 4($sp)
 949 07c8 8FB00000		lw	$s0, 0($sp)
 950 07cc 23BD0014		addi	$sp, $sp, 20
 951 07d0 03E00008		jr	$ra
 952 07d4               
 953 07d4               #
 954 07d4               # Name: Print break row
 955 07d4               #
 956 07d4               print_break_row:
 957 07d4               	
 958 07d4 23BDFFFC		addi	$sp, $sp, -4
 959 07d8 AFBF0000		sw	$ra, 0($sp)
 960 07dc               
 961 07dc 3C040000		la	$a0, new_line_char
     07e0 34840000
 962 07e4 0C00022E		jal	print_string
 963 07e8               
 964 07e8 3C040000		la	$a0, spacess
     07ec 34840000
 965 07f0 0C00022E		jal	print_string
 966 07f4               	
 967 07f4 3C090000		la      $t1, board_size
     07f8 35290000
 968 07fc 81290000		lb      $t1, 0($t1)
 969 0800               
 970 0800 34080000		li	$t0, 0
 971 0804               
 972 0804               
 973 0804               print_break_row_loop:
 974 0804               	
 975 0804 11280005		beq	$t1, $t0, print_break_row_done
 976 0808               
 977 0808 3C040000		la	$a0, board_row_break_part
     080c 34840000
 978 0810 0C00022E		jal	print_string
 979 0814               
 980 0814 21080001		addi	$t0, $t0, 1
 981 0818               
 982 0818 08000201		j	print_break_row_loop
 983 081c               
 984 081c               print_break_row_done:
 985 081c 3C040000		la	$a0, plus_char_break
     0820 34840000
 986 0824 0C00022E		jal	print_string
 987 0828               	
 988 0828 8FBF0000		lw	$ra, 0($sp)
 989 082c 23BD0004		addi	$sp, $sp, 4
 990 0830               	
 991 0830 03E00008		jr	$ra
 992 0834               
 993 0834               
 994 0834               #
 995 0834               # Name: print y hint
 996 0834               #
 997 0834               # Arguments:
 998 0834               #    $a0: pointer to array
 999 0834               #    $a1: index
1000 0834               #
1001 0834               print_y_hint:
1002 0834 23BDFFFC		addi	$sp, $sp, -4
1003 0838 AFBF0000		sw	$ra, 0($sp)
1004 083c               
1005 083c 00852020		add	$a0, $a0, $a1
1006 0840 80840000		lb	$a0, 0($a0)
1007 0844 0C000231		jal	print_number_exclude
1008 0848               
1009 0848 8FBF0000		lw	$ra, 0($sp)
1010 084c 23BD0004		addi	$sp, $sp, 4
1011 0850 03E00008		jr	$ra
1012 0854               
1013 0854               #
1014 0854               # Name: prints x axis hints
1015 0854               #
1016 0854               # Arguments: 
1017 0854               #     $a0: pointer to hint array
1018 0854               #
1019 0854               print_x_hints:
1020 0854 23BDFFFC		addi	$sp, $sp, -4
1021 0858 AFBF0000		sw	$ra, 0($sp)
1022 085c               	
1023 085c 00805021		move	$t2, $a0
1024 0860               
1025 0860 3C090000		la      $t1, board_size
     0864 35290000
1026 0868 81290000		lb      $t1, 0($t1)
1027 086c               
1028 086c 34080000		li	$t0, 0
1029 0870               	
1030 0870 3C040000		la	$a0, spaces
     0874 34840000
1031 0878 0C00022E		jal	print_string
1032 087c               
1033 087c               print_x_hints_loop: 
1034 087c               	
1035 087c 1128000B		beq	$t1, $t0, print_x_hints_done
1036 0880               	
1037 0880 3C040000		la	$a0, spacess
     0884 34840000
1038 0888 0C00022E		jal	print_string
1039 088c               
1040 088c 3C040000		la	$a0, spaces
     0890 34840000
1041 0894 0C00022E		jal	print_string
1042 0898               	
1043 0898 81440000		lb	$a0, 0($t2)
1044 089c 0C000231		jal	print_number_exclude
1045 08a0               
1046 08a0               	
1047 08a0 214A0001		addi	$t2, $t2, 1
1048 08a4 21080001		addi	$t0, $t0, 1
1049 08a8               
1050 08a8 0800021F		j	print_x_hints_loop
1051 08ac               
1052 08ac               print_x_hints_done:
1053 08ac               	
1054 08ac 8FBF0000		lw	$ra, 0($sp)
1055 08b0 23BD0004		addi	$sp, $sp, 4
1056 08b4               	
1057 08b4 03E00008		jr	$ra
1058 08b8               
1059 08b8               
1060 08b8               
1061 08b8               print_string:
1062 08b8 34020004		li	$v0, PRINT_STRING
1063 08bc 0000000C		syscall
1064 08c0               
1065 08c0 03E00008		jr	$ra
1066 08c4               
1067 08c4               #
1068 08c4               # Name: print_number_exclude
1069 08c4               #    prints numbers excluding zero
1070 08c4               #
1071 08c4               #
1072 08c4               print_number_exclude:
1073 08c4 23BDFFFC		addi	$sp, $sp, -4
1074 08c8 AFBF0000		sw	$ra, 0($sp)
1075 08cc               	
1076 08cc 10800003		beq	$a0, $zero, print_space
1077 08d0               	
1078 08d0 34020001		li	$v0, PRINT_INT
1079 08d4 0000000C		syscall
1080 08d8               	
1081 08d8 0800023A		j	done_print_number_exclude
1082 08dc               	
1083 08dc               print_space:
1084 08dc 3C040000		la	$a0, spaces
     08e0 34840000
1085 08e4 0C00022E		jal	print_string
1086 08e8               	
1087 08e8               done_print_number_exclude:
1088 08e8               
1089 08e8 8FBF0000		lw	$ra, 0($sp)
1090 08ec 23BD0004		addi	$sp, $sp, 4
1091 08f0 03E00008		jr	$ra
1092 08f4               
1093 08f4               #
1094 08f4               # Name: print_number
1095 08f4               #    prints numbers
1096 08f4               #
1097 08f4               #
1098 08f4               print_number:
1099 08f4 34020001		li	$v0, PRINT_INT
1100 08f8 0000000C		syscall
1101 08fc               
1102 08fc 03E00008		jr	$ra
1103 0900               
1104 0900               


EXIT                           = 0000000A   
PRINT_INT                      = 00000001   
PRINT_STRING                   = 00000004   
READ_INT                       = 00000005   
board                            00000001 R  data 
board_input_error                0000020E R  data 
board_row_break_part             00000181 R  data 
board_size                       00000000 R  data 
board_space_back                 00000190 R  data 
board_space_front                00000189 R  data 
board_space_mid                  0000018C R  data 
check_fail                       00000304 R  text 
continue_check_loop              000002E8 R  text 
done_print_number_exclude        000008E8 R  text 
done_validate                    0000020C R  text 
east_hints                       00000141 R  data 
eval                             000000A0 R  text 
eval_end                         0000015C R  text 
eval_loop                        0000010C R  text 
eval_loop_bottom                 0000014C R  text 
eval_loop_done                   00000158 R  text 
eval_not_found_fixed             00000108 R  text 
final_puzzle                     000001EB R  data 
fixed_input_error                000002A5 R  data 
fixed_number_input_error         0000026B R  data 
generic_check_board              0000021C R  text 
generic_check_loop_col           00000258 R  text 
generic_check_loop_done_col      0000030C R  text 
generic_check_loop_done_row      000002F0 R  text 
generic_check_loop_found_zero    000002F8 R  text 
generic_check_loop_row           0000026C R  text 
get_next_east                    00000424 R  text 
get_next_north                   000003E4 R  text 
get_next_south                   00000450 R  text 
get_next_west                    00000400 R  text 
illegal_input_error              0000023C R  data 
impossible                       000001FA R  data 
init_puzzle                      000001D9 R  data 
load_fixed                       000005A8 R  text 
load_fixed_done                  00000654 R  text 
load_hints                       00000674 R  text 
load_hints_done                  000006D4 R  text 
logo                             0000019B R  data 
main                             00000000 R  text 
main_done                        00000090 R  text 
new_line_char                    00000194 R  data 
no_last_fixed_space              000000EC R  text 
north_hints                      00000101 R  data 
not_last_place                   0000012C R  text 
pass_add                         000002E4 R  text 
plus_char_break                  00000186 R  data 
print_board                      000006F0 R  text 
print_board_done                 0000079C R  text 
print_board_loop_col             00000760 R  text 
print_board_loop_col_done        00000784 R  text 
print_board_loop_row             0000072C R  text 
print_break_row                  000007D4 R  text 
print_break_row_done             0000081C R  text 
print_break_row_loop             00000804 R  text 
print_number                     000008F4 R  text 
print_number_exclude             000008C4 R  text 
print_space                      000008DC R  text 
print_string                     000008B8 R  text 
print_x_hints                    00000854 R  text 
print_x_hints_done               000008AC R  text 
print_x_hints_loop               0000087C R  text 
print_y_hint                     00000834 R  text 
read_board                       00000474 R  text 
read_fixed_loop                  000005D0 R  text 
read_input                       000004CC R  text 
read_input_end                   00000598 R  text 
read_input_error                 00000590 R  text 
read_input_loop                  00000698 R  text 
repeat_check                     0000033C R  text 
repeat_check_loop                00000380 R  text 
repeat_check_loop_bottom         000003A8 R  text 
repeat_check_loop_done           000003B4 R  text 
repeat_found                     000003B0 R  text 
size_fixed_error                 00000644 R  text 
size_input_error                 000006C4 R  text 
solve_fail                       00000084 R  text 
south_hints                      00000121 R  data 
spaces                           00000199 R  data 
spacess                          00000196 R  data 
validate_board                   00000184 R  text 
west_hints                       00000161 R  data 
write_board                      000004A0 R  text 
